target datalayout = "e-m:e-p270:32:32-p271:32:32-p272:64:64-i64:64-i128:128-f80:128-n8:16:32:64-S128"
target triple = "x86_64-pc-linux-gnu"

%struct.lua_TValue = type { %union.Value, [1 x i32], i32 }
%union.Value = type { ptr }
%struct.lua_State = type { i8, i8, i8, i8, i8, i8, i8, ptr, ptr, ptr, ptr, ptr, ptr, ptr, ptr, i32, i32, i16, i16, i32, ptr, ptr, ptr, ptr, ptr }
%struct.LuaTable = type { i8, i8, i8, i8, i8, i8, i8, i8, i32, %union.anon.2, ptr, ptr, ptr, ptr }
%union.anon.2 = type { i32 }

@luaO_nilobject_ = external hidden global %struct.lua_TValue, align 8

; Function Attrs: alwaysinline mustprogress uwtable
define internal noundef ptr @_ZL10index2addrP9lua_Statei(ptr noundef %0, i32 noundef %1) #2 {
  %3 = alloca ptr, align 8
  %4 = alloca ptr, align 8
  %5 = alloca i32, align 4
  %6 = alloca ptr, align 8
  %7 = alloca i32, align 4
  store ptr %0, ptr %4, align 8, !tbaa !4
  store i32 %1, ptr %5, align 4, !tbaa !9
  %8 = load i32, ptr %5, align 4, !tbaa !9
  %9 = icmp sgt i32 %8, 0
  br i1 %9, label %10, label %27

10:                                               ; preds = %2
  call void @llvm.lifetime.start.p0(i64 8, ptr %6) #11
  %11 = load ptr, ptr %4, align 8, !tbaa !4
  %12 = getelementptr inbounds nuw %struct.lua_State, ptr %11, i32 0, i32 8
  %13 = load ptr, ptr %12, align 8, !tbaa !13
  %14 = load i32, ptr %5, align 4, !tbaa !9
  %15 = sub nsw i32 %14, 1
  %16 = sext i32 %15 to i64
  %17 = getelementptr inbounds %struct.lua_TValue, ptr %13, i64 %16
  store ptr %17, ptr %6, align 8, !tbaa !11
  %18 = load ptr, ptr %6, align 8, !tbaa !11
  %19 = load ptr, ptr %4, align 8, !tbaa !4
  %20 = getelementptr inbounds nuw %struct.lua_State, ptr %19, i32 0, i32 7
  %21 = load ptr, ptr %20, align 8, !tbaa !23
  %22 = icmp uge ptr %18, %21
  br i1 %22, label %23, label %24

23:                                               ; preds = %10
  store ptr @luaO_nilobject_, ptr %3, align 8
  store i32 1, ptr %7, align 4
  br label %26

24:                                               ; preds = %10
  %25 = load ptr, ptr %6, align 8, !tbaa !11
  store ptr %25, ptr %3, align 8
  store i32 1, ptr %7, align 4
  br label %26

26:                                               ; preds = %24, %23
  call void @llvm.lifetime.end.p0(i64 8, ptr %6) #11
  br label %41

27:                                               ; preds = %2
  %28 = load i32, ptr %5, align 4, !tbaa !9
  %29 = icmp sgt i32 %28, -10000
  br i1 %29, label %30, label %37

30:                                               ; preds = %27
  %31 = load ptr, ptr %4, align 8, !tbaa !4
  %32 = getelementptr inbounds nuw %struct.lua_State, ptr %31, i32 0, i32 7
  %33 = load ptr, ptr %32, align 8, !tbaa !23
  %34 = load i32, ptr %5, align 4, !tbaa !9
  %35 = sext i32 %34 to i64
  %36 = getelementptr inbounds %struct.lua_TValue, ptr %33, i64 %35
  store ptr %36, ptr %3, align 8
  br label %41

37:                                               ; preds = %27
  %38 = load ptr, ptr %4, align 8, !tbaa !4
  %39 = load i32, ptr %5, align 4, !tbaa !9
  %40 = call noundef ptr @_ZL11pseudo2addrP9lua_Statei(ptr noundef %38, i32 noundef %39)
  store ptr %40, ptr %3, align 8
  br label %41

41:                                               ; preds = %37, %30, %26
  %42 = load ptr, ptr %3, align 8
  ret ptr %42
}

; Function Attrs: mustprogress uwtable
define dso_local void @_Z14lua_setsafeenvP9lua_Stateii(ptr noundef %0, i32 noundef %1, i32 noundef %2) #0 {
  %4 = alloca ptr, align 8
  %5 = alloca i32, align 4
  %6 = alloca i32, align 4
  %7 = alloca ptr, align 8
  %8 = alloca ptr, align 8
  store ptr %0, ptr %4, align 8, !tbaa !4
  store i32 %1, ptr %5, align 4, !tbaa !9
  store i32 %2, ptr %6, align 4, !tbaa !9
  call void @llvm.lifetime.start.p0(i64 8, ptr %7) #11
  %9 = load ptr, ptr %4, align 8, !tbaa !4
  %10 = load i32, ptr %5, align 4, !tbaa !9
  %11 = call noundef ptr @_ZL10index2addrP9lua_Statei(ptr noundef %9, i32 noundef %10)
  store ptr %11, ptr %7, align 8, !tbaa !11
  call void @llvm.lifetime.start.p0(i64 8, ptr %8) #11
  %12 = load ptr, ptr %7, align 8, !tbaa !11
  %13 = getelementptr inbounds nuw %struct.lua_TValue, ptr %12, i32 0, i32 0
  %14 = load ptr, ptr %13, align 8, !tbaa !25
  store ptr %14, ptr %8, align 8, !tbaa !92
  %15 = load i32, ptr %6, align 4, !tbaa !9
  %16 = icmp ne i32 %15, 0
  %17 = zext i1 %16 to i8
  %18 = load ptr, ptr %8, align 8, !tbaa !92
  %19 = getelementptr inbounds nuw %struct.LuaTable, ptr %18, i32 0, i32 5
  store i8 %17, ptr %19, align 1, !tbaa !96
  call void @llvm.lifetime.end.p0(i64 8, ptr %8) #11
  call void @llvm.lifetime.end.p0(i64 8, ptr %7) #11
  ret void
}